; Function Attrs: nounwind uwtable
define internal noundef i32 @aes_ecb_cipher(ptr noundef %0, ptr noundef %1, ptr noundef %2, i64 noundef %3) #2 {
  %5 = tail call i32 @EVP_CIPHER_CTX_get_block_size(ptr noundef %0) #8
  %6 = sext i32 %5 to i64
  %7 = tail call ptr @EVP_CIPHER_CTX_get_cipher_data(ptr noundef %0) #8
  %8 = icmp ult i64 %3, %6
  br i1 %8, label %.loopexit, label %9

9:                                                ; preds = %4
  %10 = sub nuw i64 %3, %6
  %11 = getelementptr inbounds nuw i8, ptr %7, i64 248
  br label %12

12:                                               ; preds = %9, %12
  %.01618 = phi i64 [ 0, %9 ], [ %16, %12 ]
  %13 = load ptr, ptr %11, align 8, !tbaa !7
  %14 = getelementptr inbounds nuw i8, ptr %2, i64 %.01618
  %15 = getelementptr inbounds nuw i8, ptr %1, i64 %.01618
  tail call void %13(ptr noundef %14, ptr noundef %15, ptr noundef %7) #8
  %16 = add i64 %.01618, %6
  %.not = icmp ugt i64 %16, %10
  br i1 %.not, label %.loopexit, label %12, !llvm.loop !11

.loopexit:                                        ; preds = %12, %4
  ret i32 1
}